target datalayout = "e-m:e-p270:32:32-p271:32:32-p272:64:64-i64:64-i128:128-f80:128-n8:16:32:64-S128"
target triple = "x86_64-pc-linux-gnu"

@id_keyword_init = internal global i64 0, align 8
@rb_cStruct = dso_local global i64 0, align 8
@rb_cData = internal global i64 0, align 8

; Function Attrs: inlinehint nounwind sspstrong willreturn memory(none) uwtable
define internal zeroext i1 @RB_TEST(i64 noundef %0) #3 {
  %2 = alloca i64, align 8
  store i64 %0, ptr %2, align 8, !tbaa !7
  %3 = load i64, ptr %2, align 8, !tbaa !7
  %4 = and i64 %3, -5
  %5 = icmp ne i64 %4, 0
  ret i1 %5
}

; Function Attrs: inlinehint nounwind sspstrong willreturn memory(none) uwtable
define internal zeroext i1 @RB_NIL_P(i64 noundef %0) #3 {
  %2 = alloca i64, align 8
  store i64 %0, ptr %2, align 8, !tbaa !7
  %3 = load i64, ptr %2, align 8, !tbaa !7
  %4 = icmp eq i64 %3, 4
  ret i1 %4
}

; Function Attrs: inlinehint nounwind sspstrong uwtable
define internal i64 @struct_ivar_get(i64 noundef %0, i64 noundef %1) #1 {
  %3 = alloca i64, align 8
  %4 = alloca i64, align 8
  %5 = alloca i64, align 8
  %6 = alloca i64, align 8
  %7 = alloca i64, align 8
  %8 = alloca i32, align 4
  store i64 %0, ptr %4, align 8, !tbaa !7
  store i64 %1, ptr %5, align 8, !tbaa !7
  call void @llvm.lifetime.start.p0(i64 8, ptr %6) #26
  %9 = load i64, ptr %4, align 8, !tbaa !7
  store i64 %9, ptr %6, align 8, !tbaa !7
  call void @llvm.lifetime.start.p0(i64 8, ptr %7) #26
  %10 = load i64, ptr %4, align 8, !tbaa !7
  %11 = load i64, ptr %5, align 8, !tbaa !7
  %12 = call i64 @rb_attr_get(i64 noundef %10, i64 noundef %11)
  store i64 %12, ptr %7, align 8, !tbaa !7
  %13 = load i64, ptr %7, align 8, !tbaa !7
  %14 = call zeroext i1 @RB_NIL_P(i64 noundef %13) #27
  br i1 %14, label %17, label %15

15:                                               ; preds = %2
  %16 = load i64, ptr %7, align 8, !tbaa !7
  store i64 %16, ptr %3, align 8
  store i32 1, ptr %8, align 4
  br label %44

17:                                               ; preds = %2
  br label %18

18:                                               ; preds = %43, %17
  %19 = load i64, ptr %4, align 8, !tbaa !7
  %20 = call i64 @rb_class_superclass(i64 noundef %19) #28
  store i64 %20, ptr %4, align 8, !tbaa !7
  %21 = load i64, ptr %4, align 8, !tbaa !7
  %22 = load i64, ptr @rb_cStruct, align 8, !tbaa !7
  %23 = icmp eq i64 %21, %22
  br i1 %23, label %31, label %24

24:                                               ; preds = %18
  %25 = load i64, ptr %4, align 8, !tbaa !7
  %26 = load i64, ptr @rb_cData, align 8, !tbaa !7
  %27 = icmp eq i64 %25, %26
  br i1 %27, label %31, label %28

28:                                               ; preds = %24
  %29 = load i64, ptr %4, align 8, !tbaa !7
  %30 = call zeroext i1 @RB_TEST(i64 noundef %29) #27
  br i1 %30, label %32, label %31

31:                                               ; preds = %28, %24, %18
  store i64 4, ptr %3, align 8
  store i32 1, ptr %8, align 4
  br label %44

32:                                               ; preds = %28
  %33 = load i64, ptr %4, align 8, !tbaa !7
  %34 = load i64, ptr %5, align 8, !tbaa !7
  %35 = call i64 @rb_attr_get(i64 noundef %33, i64 noundef %34)
  store i64 %35, ptr %7, align 8, !tbaa !7
  %36 = load i64, ptr %7, align 8, !tbaa !7
  %37 = call zeroext i1 @RB_NIL_P(i64 noundef %36) #27
  br i1 %37, label %43, label %38

38:                                               ; preds = %32
  %39 = load i64, ptr %6, align 8, !tbaa !7
  %40 = load i64, ptr %5, align 8, !tbaa !7
  %41 = load i64, ptr %7, align 8, !tbaa !7
  %42 = call i64 @rb_ivar_set(i64 noundef %39, i64 noundef %40, i64 noundef %41)
  store i64 %42, ptr %3, align 8
  store i32 1, ptr %8, align 4
  br label %44

43:                                               ; preds = %32
  br label %18

44:                                               ; preds = %38, %31, %15
  call void @llvm.lifetime.end.p0(i64 8, ptr %7) #26
  call void @llvm.lifetime.end.p0(i64 8, ptr %6) #26
  %45 = load i64, ptr %3, align 8
  ret i64 %45
}

; Function Attrs: nounwind sspstrong uwtable
define hidden i64 @rb_struct_s_keyword_init(i64 noundef %0) #0 {
  %2 = alloca i64, align 8
  store i64 %0, ptr %2, align 8, !tbaa !7
  %3 = load i64, ptr %2, align 8, !tbaa !7
  %4 = load i64, ptr @id_keyword_init, align 8, !tbaa !7
  %5 = call i64 @struct_ivar_get(i64 noundef %3, i64 noundef %4)
  ret i64 %5
}