; Function Attrs: nounwind sspstrong uwtable
define hidden i64 @rb_struct_s_keyword_init(i64 noundef %0) #0 {
  %2 = load i64, ptr @id_keyword_init, align 8, !tbaa !7
  %3 = tail call i64 @rb_attr_get(i64 noundef %0, i64 noundef %2) #19
  %4 = icmp eq i64 %3, 4
  br i1 %4, label %.preheader.i, label %struct_ivar_get.exit

.preheader.i:                                     ; preds = %1, %12
  %.016.i = phi i64 [ %5, %12 ], [ %0, %1 ]
  %5 = tail call i64 @rb_class_superclass(i64 noundef %.016.i) #20
  %6 = load i64, ptr @rb_cStruct, align 8, !tbaa !7
  %7 = icmp ne i64 %5, %6
  %8 = load i64, ptr @rb_cData, align 8
  %9 = icmp ne i64 %5, %8
  %or.cond.not22.i = select i1 %7, i1 %9, i1 false
  %10 = and i64 %5, -5
  %11 = icmp ne i64 %10, 0
  %or.cond20.i = and i1 %11, %or.cond.not22.i
  br i1 %or.cond20.i, label %12, label %struct_ivar_get.exit

12:                                               ; preds = %.preheader.i
  %13 = tail call i64 @rb_attr_get(i64 noundef %5, i64 noundef %2) #19
  %14 = icmp eq i64 %13, 4
  br i1 %14, label %.preheader.i, label %15

15:                                               ; preds = %12
  %16 = tail call i64 @rb_ivar_set(i64 noundef %0, i64 noundef %2, i64 noundef %13) #19
  br label %struct_ivar_get.exit

struct_ivar_get.exit:                             ; preds = %.preheader.i, %1, %15
  %.0.i = phi i64 [ %16, %15 ], [ %3, %1 ], [ 4, %.preheader.i ]
  ret i64 %.0.i
}